; ModuleID = 'source-C-CXX/3/647.c'
source_filename = "source-C-CXX/3/647.c"
target datalayout = "e-m:e-p270:32:32-p271:32:32-p272:64:64-i64:64-f80:128-n8:16:32:64-S128"
target triple = "x86_64-pc-linux-gnu"

@.str = private unnamed_addr constant [6 x i8] c"%d %d\00", align 1
@.str.1 = private unnamed_addr constant [3 x i8] c"%d\00", align 1
@.str.2 = private unnamed_addr constant [4 x i8] c"%d\0A\00", align 1

; Function Attrs: nofree nounwind sspstrong uwtable
define dso_local i32 @main() local_unnamed_addr #0 {
  %1 = alloca [100 x [100 x i32]], align 16
  %2 = alloca i32, align 4
  %3 = alloca i32, align 4
  %4 = bitcast [100 x [100 x i32]]* %1 to i8*
  call void @llvm.lifetime.start.p0i8(i64 40000, i8* nonnull %4) #3
  %5 = bitcast i32* %2 to i8*
  call void @llvm.lifetime.start.p0i8(i64 4, i8* nonnull %5) #3
  %6 = bitcast i32* %3 to i8*
  call void @llvm.lifetime.start.p0i8(i64 4, i8* nonnull %6) #3
  %7 = call i32 (i8*, ...) @__isoc99_scanf(i8* getelementptr inbounds ([6 x i8], [6 x i8]* @.str, i64 0, i64 0), i32* nonnull %2, i32* nonnull %3)
  %8 = load i32, i32* %2, align 4, !tbaa !5
  %9 = icmp sgt i32 %8, 0
  %10 = load i32, i32* %3, align 4, !tbaa !5
  %11 = icmp sgt i32 %10, 0
  %12 = select i1 %9, i1 %11, i1 false
  br i1 %12, label %13, label %18

13:                                               ; preds = %0, %34
  %14 = phi i32 [ %35, %34 ], [ %8, %0 ]
  %15 = phi i32 [ %36, %34 ], [ %10, %0 ]
  %16 = phi i64 [ %37, %34 ], [ 0, %0 ]
  %17 = icmp sgt i32 %15, 0
  br i1 %17, label %24, label %34

18:                                               ; preds = %34, %0
  %19 = phi i32 [ %10, %0 ], [ %36, %34 ]
  %20 = phi i32 [ %8, %0 ], [ %35, %34 ]
  %21 = add i32 %20, -1
  %22 = add i32 %21, %19
  %23 = icmp sgt i32 %22, 0
  br i1 %23, label %40, label %94

24:                                               ; preds = %13, %24
  %25 = phi i64 [ %28, %24 ], [ 0, %13 ]
  %26 = getelementptr inbounds [100 x [100 x i32]], [100 x [100 x i32]]* %1, i64 0, i64 %16, i64 %25
  %27 = call i32 (i8*, ...) @__isoc99_scanf(i8* getelementptr inbounds ([3 x i8], [3 x i8]* @.str.1, i64 0, i64 0), i32* nonnull %26)
  %28 = add nuw nsw i64 %25, 1
  %29 = load i32, i32* %3, align 4, !tbaa !5
  %30 = sext i32 %29 to i64
  %31 = icmp slt i64 %28, %30
  br i1 %31, label %24, label %32, !llvm.loop !9

32:                                               ; preds = %24
  %33 = load i32, i32* %2, align 4, !tbaa !5
  br label %34

34:                                               ; preds = %32, %13
  %35 = phi i32 [ %33, %32 ], [ %14, %13 ]
  %36 = phi i32 [ %29, %32 ], [ %15, %13 ]
  %37 = add nuw nsw i64 %16, 1
  %38 = sext i32 %35 to i64
  %39 = icmp slt i64 %37, %38
  br i1 %39, label %13, label %18, !llvm.loop !11

40:                                               ; preds = %18, %85
  %41 = phi i32 [ %86, %85 ], [ %20, %18 ]
  %42 = phi i64 [ %87, %85 ], [ 0, %18 ]
  %43 = phi i32 [ %89, %85 ], [ %19, %18 ]
  %44 = phi i32 [ %88, %85 ], [ 0, %18 ]
  %45 = sext i32 %43 to i64
  %46 = icmp slt i64 %42, %45
  br i1 %46, label %56, label %47

47:                                               ; preds = %40
  %48 = add nuw nsw i32 %44, 1
  %49 = sub i32 %48, %41
  %50 = icmp sgt i32 %43, %49
  %51 = icmp sgt i32 %43, 0
  %52 = and i1 %51, %50
  br i1 %52, label %53, label %85

53:                                               ; preds = %47
  %54 = trunc i64 %42 to i32
  %55 = add i32 %54, 1
  br label %58

56:                                               ; preds = %40
  %57 = icmp sgt i32 %41, 0
  br i1 %57, label %71, label %85

58:                                               ; preds = %53, %58
  %59 = phi i64 [ %45, %53 ], [ %60, %58 ]
  %60 = add nsw i64 %59, -1
  %61 = sub nsw i64 %42, %60
  %62 = getelementptr inbounds [100 x [100 x i32]], [100 x [100 x i32]]* %1, i64 0, i64 %61, i64 %60
  %63 = load i32, i32* %62, align 4, !tbaa !5
  %64 = call i32 (i8*, ...) @printf(i8* nonnull dereferenceable(1) getelementptr inbounds ([4 x i8], [4 x i8]* @.str.2, i64 0, i64 0), i32 %63)
  %65 = load i32, i32* %2, align 4, !tbaa !5
  %66 = sub i32 %55, %65
  %67 = sext i32 %66 to i64
  %68 = icmp sgt i64 %60, %67
  %69 = icmp sgt i64 %59, 1
  %70 = and i1 %69, %68
  br i1 %70, label %58, label %85, !llvm.loop !13

71:                                               ; preds = %56, %71
  %72 = phi i64 [ %84, %71 ], [ %42, %56 ]
  %73 = sub nuw nsw i64 %42, %72
  %74 = getelementptr inbounds [100 x [100 x i32]], [100 x [100 x i32]]* %1, i64 0, i64 %73, i64 %72
  %75 = load i32, i32* %74, align 4, !tbaa !5
  %76 = call i32 (i8*, ...) @printf(i8* nonnull dereferenceable(1) getelementptr inbounds ([4 x i8], [4 x i8]* @.str.2, i64 0, i64 0), i32 %75)
  %77 = trunc i64 %72 to i32
  %78 = add nsw i32 %77, -1
  %79 = load i32, i32* %2, align 4, !tbaa !5
  %80 = sub nsw i32 %44, %79
  %81 = icmp sgt i32 %78, %80
  %82 = icmp sgt i64 %72, 0
  %83 = and i1 %82, %81
  %84 = add nsw i64 %72, -1
  br i1 %83, label %71, label %85, !llvm.loop !14

85:                                               ; preds = %58, %71, %47, %56
  %86 = phi i32 [ %41, %47 ], [ %41, %56 ], [ %79, %71 ], [ %65, %58 ]
  %87 = add nuw nsw i64 %42, 1
  %88 = add nuw nsw i32 %44, 1
  %89 = load i32, i32* %3, align 4, !tbaa !5
  %90 = add i32 %86, -1
  %91 = add i32 %90, %89
  %92 = sext i32 %91 to i64
  %93 = icmp slt i64 %87, %92
  br i1 %93, label %40, label %94, !llvm.loop !15

94:                                               ; preds = %85, %18
  call void @llvm.lifetime.end.p0i8(i64 4, i8* nonnull %6) #3
  call void @llvm.lifetime.end.p0i8(i64 4, i8* nonnull %5) #3
  call void @llvm.lifetime.end.p0i8(i64 40000, i8* nonnull %4) #3
  ret i32 0
}

; Function Attrs: argmemonly mustprogress nofree nosync nounwind willreturn
declare void @llvm.lifetime.start.p0i8(i64 immarg, i8* nocapture) #1

; Function Attrs: nofree nounwind
declare noundef i32 @__isoc99_scanf(i8* nocapture noundef readonly, ...) local_unnamed_addr #2

; Function Attrs: nofree nounwind
declare noundef i32 @printf(i8* nocapture noundef readonly, ...) local_unnamed_addr #2

; Function Attrs: argmemonly mustprogress nofree nosync nounwind willreturn
declare void @llvm.lifetime.end.p0i8(i64 immarg, i8* nocapture) #1


!llvm.module.flags = !{!0, !1, !2, !3}
!llvm.ident = !{!4}

!0 = !{i32 1, !"wchar_size", i32 4}
!1 = !{i32 7, !"PIC Level", i32 2}
!2 = !{i32 7, !"PIE Level", i32 2}
!3 = !{i32 7, !"uwtable", i32 1}
!4 = !{!"clang version 13.0.0"}
!5 = !{!6, !6, i64 0}
!6 = !{!"int", !7, i64 0}
!7 = !{!"omnipotent char", !8, i64 0}
!8 = !{!"Simple C/C++ TBAA"}
!9 = distinct !{!9, !10}
!10 = !{!"llvm.loop.mustprogress"}
!11 = distinct !{!11, !10, !12}
!12 = !{!"llvm.loop.unswitch.partial.disable"}
!13 = distinct !{!13, !10}
!14 = distinct !{!14, !10}
!15 = distinct !{!15, !10}
